; Function Attrs: mustprogress uwtable
define hidden noundef zeroext i1 @_ZN4lean15levels_has_mvarEP11lean_object(ptr noundef %0) local_unnamed_addr #0 {
  %2 = ptrtoint ptr %0 to i64
  %3 = and i64 %2, 1
  %.not56 = icmp eq i64 %3, 0
  br i1 %.not56, label %.lr.ph, label %._crit_edge

.lr.ph:                                           ; preds = %1, %7
  %.07 = phi ptr [ %9, %7 ], [ %0, %1 ]
  %4 = getelementptr inbounds nuw i8, ptr %.07, i64 8
  %5 = load ptr, ptr %4, align 8, !tbaa !41
  %6 = tail call zeroext i8 @lean_level_has_mvar(ptr noundef %5)
  %.not.not.not = icmp ne i8 %6, 0
  br i1 %.not.not.not, label %._crit_edge, label %7

7:                                                ; preds = %.lr.ph
  %8 = getelementptr inbounds nuw i8, ptr %.07, i64 16
  %9 = load ptr, ptr %8, align 8, !tbaa !41
  %10 = ptrtoint ptr %9 to i64
  %11 = and i64 %10, 1
  %.not5 = icmp eq i64 %11, 0
  br i1 %.not5, label %.lr.ph, label %._crit_edge, !llvm.loop !43

._crit_edge:                                      ; preds = %.lr.ph, %7, %1
  %.not5.lcssa = phi i1 [ false, %1 ], [ %.not.not.not, %7 ], [ %.not.not.not, %.lr.ph ]
  ret i1 %.not5.lcssa
}